Certificate:
    Data:
        Version: 3 (0x2)
        Serial Number: 2 (0x2)
    Signature Algorithm: sha1WithRSAEncryption
        Issuer: C=GB, ST=Derbyshire, O=Mosquitto Project, OU=Testing, CN=Signing CA
        Validity
            Not Before: Jul 24 23:51:17 2013 GMT
            Not After : Jul 23 23:51:17 2018 GMT
        Subject: C=GB, ST=Nottinghamshire, L=Nottingham, O=Server, OU=Production, CN=test client
        Subject Public Key Info:
            Public Key Algorithm: rsaEncryption
                Public-Key: (1024 bit)
                Modulus:
                    00:e0:17:6d:01:2a:f4:2c:8b:af:e7:08:81:54:6e:
                    0b:8f:94:39:eb:eb:c4:29:39:af:5e:92:2e:67:43:
                    52:61:9a:b4:01:11:d0:1e:d8:a0:89:d2:9d:65:7d:
                    fe:f6:8b:a5:4a:0a:a1:d6:6f:33:3f:df:db:fa:7d:
                    85:a6:4a:1b:c3:a9:e3:11:e4:a4:00:31:e7:18:21:
                    d6:1b:56:a0:ff:9a:0b:68:ad:4e:69:aa:1a:3f:4b:
                    ad:56:dd:b4:a3:92:4e:54:8a:b3:32:89:e5:fa:86:
                    c2:9f:4e:57:3f:4c:cb:b9:76:6c:d5:a7:26:d1:42:
                    fb:c0:e6:c6:dc:c1:08:85:5b
                Exponent: 65537 (0x10001)
        X509v3 extensions:
            X509v3 Basic Constraints: 
                CA:FALSE
            Netscape Comment: 
                OpenSSL Generated Certificate
            X509v3 Subject Key Identifier: 
                ED:BD:99:78:3B:17:7A:07:4E:A5:03:DA:4C:5C:42:B4:85:92:6B:85
            X509v3 Authority Key Identifier: 
                keyid:E5:6E:B6:D5:29:2C:0F:06:71:4A:9B:19:B0:59:26:EB:F4:2E:01:06

    Signature Algorithm: sha1WithRSAEncryption
         53:f4:23:c9:11:56:d7:6d:04:05:a5:f9:47:93:eb:18:7a:c0:
         70:24:c6:5d:db:92:dd:d1:b4:5c:a1:64:84:e1:c3:54:a8:72:
         21:33:10:9c:72:e7:4c:c2:0d:41:1f:45:2e:cd:b3:3b:4f:d8:
         bb:cc:8a:f6:83:fc:85:a1:c4:c3:2f:1c:09:9a:75:38:8a:df:
         36:62:b2:e5:e2:9b:d8:e3:95:b5:3e:32:29:8b:7e:04:8a:5b:
         69:cd:9d:ee:df:0c:ce:7f:4c:d1:a9:9d:0b:e9:c0:7e:ef:61:
         bf:7d:3b:4d:28:c6:dd:a9:1e:09:53:fd:96:01:38:90:21:04:
         9e:81
-----BEGIN CERTIFICATE-----
MIICzjCCAjegAwIBAgIBAjANBgkqhkiG9w0BAQUFADBlMQswCQYDVQQGEwJHQjET
MBEGA1UECAwKRGVyYnlzaGlyZTEaMBgGA1UECgwRTW9zcXVpdHRvIFByb2plY3Qx
EDAOBgNVBAsMB1Rlc3RpbmcxEzARBgNVBAMMClNpZ25pbmcgQ0EwHhcNMTMwNzI0
MjM1MTE3WhcNMTgwNzIzMjM1MTE3WjB4MQswCQYDVQQGEwJHQjEYMBYGA1UECAwP
Tm90dGluZ2hhbXNoaXJlMRMwEQYDVQQHDApOb3R0aW5naGFtMQ8wDQYDVQQKDAZT
ZXJ2ZXIxEzARBgNVBAsMClByb2R1Y3Rpb24xFDASBgNVBAMMC3Rlc3QgY2xpZW50
MIGfMA0GCSqGSIb3DQEBAQUAA4GNADCBiQKBgQDgF20BKvQsi6/nCIFUbguPlDnr
68QpOa9eki5nQ1JhmrQBEdAe2KCJ0p1lff72i6VKCqHWbzM/39v6fYWmShvDqeMR
5KQAMecYIdYbVqD/mgtorU5pqho/S61W3bSjkk5UirMyieX6hsKfTlc/TMu5dmzV
pybRQvvA5sbcwQiFWwIDAQABo3sweTAJBgNVHRMEAjAAMCwGCWCGSAGG+EIBDQQf
Fh1PcGVuU1NMIEdlbmVyYXRlZCBDZXJ0aWZpY2F0ZTAdBgNVHQ4EFgQU7b2ZeDsX
egdOpQPaTFxCtIWSa4UwHwYDVR0jBBgwFoAU5W621SksDwZxSpsZsFkm6/QuAQYw
DQYJKoZIhvcNAQEFBQADgYEAU/QjyRFW120EBaX5R5PrGHrAcCTGXduS3dG0XKFk
hOHDVKhyITMQnHLnTMINQR9FLs2zO0/Yu8yK9oP8haHEwy8cCZp1OIrfNmKy5eKb
2OOVtT4yKYt+BIpbac2d7t8Mzn9M0amdC+nAfu9hv307TSjG3akeCVP9lgE4kCEE
noE=
-----END CERTIFICATE-----
